; Function Attrs: mustprogress nounwind uwtable
define dso_local noundef ptr @_ZNK4llvm14RISCVMCAsmInfo19getExprForFDESymbolEPKNS_8MCSymbolEjRNS_10MCStreamerE(ptr noundef nonnull align 8 dereferenceable(484) %0, ptr noundef %1, i32 noundef %2, ptr noundef nonnull align 8 dereferenceable(288) %3) unnamed_addr #1 align 2 {
  %5 = and i32 %2, 16
  %.not = icmp eq i32 %5, 0
  br i1 %.not, label %6, label %8

6:                                                ; preds = %4
  %7 = tail call noundef ptr @_ZNK4llvm9MCAsmInfo19getExprForFDESymbolEPKNS_8MCSymbolEjRNS_10MCStreamerE(ptr noundef nonnull align 8 dereferenceable(484) %0, ptr noundef %1, i32 noundef %2, ptr noundef nonnull align 8 dereferenceable(288) %3) #5
  br label %15

8:                                                ; preds = %4
  %9 = getelementptr inbounds nuw i8, ptr %3, i64 8
  %10 = load ptr, ptr %9, align 8
  %11 = tail call noundef ptr @_ZN4llvm15MCSymbolRefExpr6createEPKNS_8MCSymbolENS0_11VariantKindERNS_9MCContextENS_5SMLocE(ptr noundef %1, i16 noundef zeroext 0, ptr noundef nonnull align 1 %10, ptr null) #5
  %12 = tail call noundef ptr @_ZN4llvm11RISCVMCExpr6createEPKNS_6MCExprENS0_11VariantKindERNS_9MCContextE(ptr noundef %11, i32 noundef 13, ptr noundef nonnull align 1 %10) #5
  %13 = icmp eq ptr %12, null
  %14 = getelementptr inbounds i8, ptr %12, i64 8
  %spec.select = select i1 %13, ptr null, ptr %14
  br label %15

15:                                               ; preds = %8, %6
  %.0 = phi ptr [ %spec.select, %8 ], [ %7, %6 ]
  ret ptr %.0
}